target datalayout = "e-m:e-p270:32:32-p271:32:32-p272:64:64-i64:64-i128:128-f80:128-n8:16:32:64-S128"
target triple = "x86_64-pc-linux-gnu"

%struct.diff_options = type { ptr, ptr, i32, i32, ptr, i32, ptr, i64, i64, ptr, ptr, ptr, ptr, %struct.diff_flags, i32, i32, i32, i32, i32, i32, i32, i32, i32, i32, i32, i32, i32, i32, i32, i32, i32, i32, i32, i32, i32, i32, ptr, i32, ptr, i32, i32, ptr, i64, i64, i32, i32, i32, i32, ptr, i32, i32, ptr, i32, i32, ptr, ptr, i32, [3 x i8], %struct.pathspec, ptr, ptr, ptr, ptr, ptr, ptr, ptr, ptr, i32, ptr, i32, i32, ptr, ptr, i32 }
%struct.diff_flags = type { i32, i32, i32, i32, i32, i32, i32, i32, i32, i32, i32, i32, i32, i32, i32, i32, i32, i32, i32, i32, i32, i32, i32, i32, i32, i32, i32, i32, i32, i32, i32, i32, i32, i32, i32 }
%struct.pathspec = type { i32, i8, i32, i32, ptr }
%struct.option = type { i32, i32, ptr, ptr, ptr, ptr, i32, ptr, i64, ptr, i64, ptr }

@.str.256 = private unnamed_addr constant [7 x i8] c"diff.c\00", align 1
@.str.338 = private unnamed_addr constant [44 x i8] c"option callback does not expect an argument\00", align 1

; Function Attrs: nounwind uwtable
define internal i32 @diff_opt_follow(ptr noundef %0, ptr noundef %1, i32 noundef %2) #0 {
  %4 = alloca ptr, align 8
  %5 = alloca ptr, align 8
  %6 = alloca i32, align 4
  %7 = alloca ptr, align 8
  store ptr %0, ptr %4, align 8, !tbaa !217
  store ptr %1, ptr %5, align 8, !tbaa !9
  store i32 %2, ptr %6, align 4, !tbaa !16
  call void @llvm.lifetime.start.p0(i64 8, ptr %7) #10
  %8 = load ptr, ptr %4, align 8, !tbaa !217
  %9 = getelementptr inbounds nuw %struct.option, ptr %8, i32 0, i32 3
  %10 = load ptr, ptr %9, align 8, !tbaa !224
  store ptr %10, ptr %7, align 8, !tbaa !34
  br label %11

11:                                               ; preds = %3
  %12 = load ptr, ptr %5, align 8, !tbaa !9
  %13 = icmp ne ptr %12, null
  br i1 %13, label %14, label %15

14:                                               ; preds = %11
  call void (ptr, i32, ptr, ...) @BUG_fl(ptr noundef @.str.256, i32 noundef 5372, ptr noundef @.str.338) #12
  unreachable

15:                                               ; preds = %11
  br label %16

16:                                               ; preds = %15
  br label %17

17:                                               ; preds = %16
  %18 = load i32, ptr %6, align 4, !tbaa !16
  %19 = icmp ne i32 %18, 0
  br i1 %19, label %20, label %27

20:                                               ; preds = %17
  %21 = load ptr, ptr %7, align 8, !tbaa !34
  %22 = getelementptr inbounds nuw %struct.diff_options, ptr %21, i32 0, i32 13
  %23 = getelementptr inbounds nuw %struct.diff_flags, ptr %22, i32 0, i32 7
  store i32 0, ptr %23, align 4, !tbaa !211
  %24 = load ptr, ptr %7, align 8, !tbaa !34
  %25 = getelementptr inbounds nuw %struct.diff_options, ptr %24, i32 0, i32 13
  %26 = getelementptr inbounds nuw %struct.diff_flags, ptr %25, i32 0, i32 30
  store i32 0, ptr %26, align 8, !tbaa !242
  br label %31

27:                                               ; preds = %17
  %28 = load ptr, ptr %7, align 8, !tbaa !34
  %29 = getelementptr inbounds nuw %struct.diff_options, ptr %28, i32 0, i32 13
  %30 = getelementptr inbounds nuw %struct.diff_flags, ptr %29, i32 0, i32 7
  store i32 1, ptr %30, align 4, !tbaa !211
  br label %31

31:                                               ; preds = %27, %20
  call void @llvm.lifetime.end.p0(i64 8, ptr %7) #10
  ret i32 0
}