; Function Attrs: nounwind uwtable
define internal noundef i32 @diff_opt_follow(ptr noundef readonly captures(none) %0, ptr noundef readnone %1, i32 noundef %2) #0 {
  %4 = getelementptr inbounds nuw i8, ptr %0, i64 16
  %5 = load ptr, ptr %4, align 8, !tbaa !215
  %.not = icmp eq ptr %1, null
  br i1 %.not, label %7, label %6

6:                                                ; preds = %3
  tail call void (ptr, i32, ptr, ...) @BUG_fl(ptr noundef nonnull @.str.256, i32 noundef 5372, ptr noundef nonnull @.str.338) #34
  unreachable

7:                                                ; preds = %3
  %.not5 = icmp eq i32 %2, 0
  br i1 %.not5, label %10, label %8

8:                                                ; preds = %7
  %9 = getelementptr inbounds nuw i8, ptr %5, i64 216
  store i32 0, ptr %9, align 8, !tbaa !231
  br label %10

10:                                               ; preds = %7, %8
  %.sink = phi i32 [ 0, %8 ], [ 1, %7 ]
  %11 = getelementptr inbounds nuw i8, ptr %5, i64 124
  store i32 %.sink, ptr %11, align 4, !tbaa !204
  ret i32 0
}